ARM GAS  /tmp/ccxrmLlz.s 			page 1


   1              		.cpu cortex-m4
   2              		.eabi_attribute 27, 1
   3              		.eabi_attribute 28, 1
   4              		.eabi_attribute 20, 1
   5              		.eabi_attribute 21, 1
   6              		.eabi_attribute 23, 3
   7              		.eabi_attribute 24, 1
   8              		.eabi_attribute 25, 1
   9              		.eabi_attribute 26, 1
  10              		.eabi_attribute 30, 2
  11              		.eabi_attribute 34, 1
  12              		.eabi_attribute 18, 4
  13              		.file	"main.c"
  14              		.text
  15              	.Ltext0:
  16              		.cfi_sections	.debug_frame
  17              		.section	.text.startup.main,"ax",%progbits
  18              		.align	1
  19              		.p2align 4,,15
  20              		.global	main
  21              		.syntax unified
  22              		.thumb
  23              		.thumb_func
  24              		.fpu fpv4-sp-d16
  25              		.type	main, %function
  26              	main:
  27              	.LFB259:
  28              		.file 1 "main.c"
  29              		.loc 1 21 0
  30              		.cfi_startproc
  31              		@ Volatile: function does not return.
  32              		@ args = 0, pretend = 0, frame = 8
  33              		@ frame_needed = 0, uses_anonymous_args = 0
  34 0000 00B5     		push	{lr}
  35              		.cfi_def_cfa_offset 4
  36              		.cfi_offset 14, -4
  37 0002 354B     		ldr	r3, .L15
  38              		.loc 1 46 0
  39 0004 354C     		ldr	r4, .L15+4
  40              		.loc 1 21 0
  41 0006 1B68     		ldr	r3, [r3]
  42 0008 83B0     		sub	sp, sp, #12
  43              		.cfi_def_cfa_offset 16
  44              		.loc 1 21 0
  45 000a 0193     		str	r3, [sp, #4]
  46              		.loc 1 23 0
  47 000c FFF7FEFF 		bl	halInit
  48              	.LVL0:
  49              		.loc 1 24 0
  50 0010 FFF7FEFF 		bl	chSysInit
  51              	.LVL1:
  52              		.loc 1 25 0
  53 0014 FFF7FEFF 		bl	mpu_init
  54              	.LVL2:
  55              		.loc 1 28 0
  56 0018 314A     		ldr	r2, .L15+8
  57 001a 3249     		ldr	r1, .L15+12
ARM GAS  /tmp/ccxrmLlz.s 			page 2


  58 001c 3248     		ldr	r0, .L15+16
  59 001e FFF7FEFF 		bl	messagebus_init
  60              	.LVL3:
  61              		.loc 1 29 0
  62 0022 0020     		movs	r0, #0
  63 0024 FFF7FEFF 		bl	proximity_start
  64              	.LVL4:
  65              		.loc 1 30 0
  66 0028 FFF7FEFF 		bl	calibrate_ir
  67              	.LVL5:
  68              		.loc 1 33 0
  69 002c FFF7FEFF 		bl	clear_leds
  70              	.LVL6:
  71              		.loc 1 34 0
  72 0030 FFF7FEFF 		bl	spi_comm_start
  73              	.LVL7:
  74              		.loc 1 37 0
  75 0034 FFF7FEFF 		bl	motors_init
  76              	.LVL8:
  77 0038 14E0     		b	.L2
  78              	.L14:
  79              		.loc 1 57 0
  80 003a FFF7FEFF 		bl	left_motor_set_speed
  81              	.LVL9:
  82              		.loc 1 58 0
  83 003e 6FF0C700 		mvn	r0, #199
  84 0042 FFF7FEFF 		bl	right_motor_set_speed
  85              	.LVL10:
  86              	.L7:
  87              		.loc 1 67 0
  88 0046 0520     		movs	r0, #5
  89 0048 FFF7FEFF 		bl	get_calibrated_prox
  90              	.LVL11:
  91 004c BE28     		cmp	r0, #190
  92              		.loc 1 69 0
  93 004e D4BF     		ite	le
  94 0050 6FF0C700 		mvnle	r0, #199
  95              		.loc 1 74 0
  96 0054 4FF4FA70 		movgt	r0, #500
  97 0058 FFF7FEFF 		bl	left_motor_set_speed
  98              	.LVL12:
  99              		.loc 1 75 0
 100 005c 4FF4FA70 		mov	r0, #500
 101 0060 FFF7FEFF 		bl	right_motor_set_speed
 102              	.LVL13:
 103              	.L2:
 104              		.loc 1 42 0
 105 0064 0020     		movs	r0, #0
 106 0066 FFF7FEFF 		bl	get_calibrated_prox
 107              	.LVL14:
 108 006a C728     		cmp	r0, #199
 109 006c 04DC     		bgt	.L5
 110              		.loc 1 42 0 is_stmt 0 discriminator 1
 111 006e 0720     		movs	r0, #7
 112 0070 FFF7FEFF 		bl	get_calibrated_prox
 113              	.LVL15:
 114 0074 C728     		cmp	r0, #199
ARM GAS  /tmp/ccxrmLlz.s 			page 3


 115 0076 17DD     		ble	.L13
 116              	.L5:
 117              		.loc 1 44 0 is_stmt 1
 118 0078 0220     		movs	r0, #2
 119 007a FFF7FEFF 		bl	set_front_led
 120              	.LVL16:
 121              		.loc 1 45 0
 122 007e 4FF4FA70 		mov	r0, #500
 123 0082 FFF7FEFF 		bl	left_motor_set_speed
 124              	.LVL17:
 125              		.loc 1 46 0
 126 0086 2046     		mov	r0, r4
 127 0088 FFF7FEFF 		bl	right_motor_set_speed
 128              	.LVL18:
 129              	.L4:
 130              		.loc 1 55 0
 131 008c 0220     		movs	r0, #2
 132 008e FFF7FEFF 		bl	get_calibrated_prox
 133              	.LVL19:
 134 0092 BE28     		cmp	r0, #190
 135              		.loc 1 57 0
 136 0094 4FF4FA70 		mov	r0, #500
 137              		.loc 1 55 0
 138 0098 CFDD     		ble	.L14
 139              		.loc 1 63 0
 140 009a FFF7FEFF 		bl	left_motor_set_speed
 141              	.LVL20:
 142              		.loc 1 64 0
 143 009e 4FF4FA70 		mov	r0, #500
 144 00a2 FFF7FEFF 		bl	right_motor_set_speed
 145              	.LVL21:
 146 00a6 CEE7     		b	.L7
 147              	.L13:
 148              		.loc 1 42 0 discriminator 2
 149 00a8 0520     		movs	r0, #5
 150 00aa FFF7FEFF 		bl	get_calibrated_prox
 151              	.LVL22:
 152 00ae C728     		cmp	r0, #199
 153 00b0 E2DC     		bgt	.L5
 154              		.loc 1 42 0 is_stmt 0 discriminator 3
 155 00b2 0620     		movs	r0, #6
 156 00b4 FFF7FEFF 		bl	get_calibrated_prox
 157              	.LVL23:
 158 00b8 C728     		cmp	r0, #199
 159 00ba DDDC     		bgt	.L5
 160              		.loc 1 42 0 discriminator 4
 161 00bc 0420     		movs	r0, #4
 162 00be FFF7FEFF 		bl	get_calibrated_prox
 163              	.LVL24:
 164 00c2 C728     		cmp	r0, #199
 165 00c4 D8DC     		bgt	.L5
 166              		.loc 1 50 0 is_stmt 1
 167 00c6 4FF4FA70 		mov	r0, #500
 168 00ca FFF7FEFF 		bl	left_motor_set_speed
 169              	.LVL25:
 170              		.loc 1 51 0
 171 00ce 4FF4FA70 		mov	r0, #500
ARM GAS  /tmp/ccxrmLlz.s 			page 4


 172 00d2 FFF7FEFF 		bl	right_motor_set_speed
 173              	.LVL26:
 174 00d6 D9E7     		b	.L4
 175              	.L16:
 176              		.align	2
 177              	.L15:
 178 00d8 00000000 		.word	__stack_chk_guard
 179 00dc 0CFEFFFF 		.word	-500
 180 00e0 00000000 		.word	.LANCHOR0
 181 00e4 00000000 		.word	.LANCHOR1
 182 00e8 00000000 		.word	.LANCHOR2
 183              		.cfi_endproc
 184              	.LFE259:
 185              		.size	main, .-main
 186              		.section	.text.__stack_chk_fail,"ax",%progbits
 187              		.align	1
 188              		.p2align 4,,15
 189              		.global	__stack_chk_fail
 190              		.syntax unified
 191              		.thumb
 192              		.thumb_func
 193              		.fpu fpv4-sp-d16
 194              		.type	__stack_chk_fail, %function
 195              	__stack_chk_fail:
 196              	.LFB260:
 197              		.loc 1 83 0
 198              		.cfi_startproc
 199              		@ args = 0, pretend = 0, frame = 8
 200              		@ frame_needed = 0, uses_anonymous_args = 0
 201 0000 00B5     		push	{lr}
 202              		.cfi_def_cfa_offset 4
 203              		.cfi_offset 14, -4
 204 0002 084B     		ldr	r3, .L22
 205 0004 83B0     		sub	sp, sp, #12
 206              		.cfi_def_cfa_offset 16
 207              		.loc 1 83 0
 208 0006 1A68     		ldr	r2, [r3]
 209 0008 0192     		str	r2, [sp, #4]
 210              		.loc 1 84 0
 211 000a 019A     		ldr	r2, [sp, #4]
 212 000c 1B68     		ldr	r3, [r3]
 213 000e 9A42     		cmp	r2, r3
 214 0010 05D1     		bne	.L21
 215 0012 0548     		ldr	r0, .L22+4
 216              		.loc 1 85 0
 217 0014 03B0     		add	sp, sp, #12
 218              		.cfi_remember_state
 219              		.cfi_def_cfa_offset 4
 220              		@ sp needed
 221 0016 5DF804EB 		ldr	lr, [sp], #4
 222              		.cfi_restore 14
 223              		.cfi_def_cfa_offset 0
 224              		.loc 1 84 0
 225 001a FFF7FEBF 		b	chSysHalt
 226              	.LVL27:
 227              	.L21:
 228              		.cfi_restore_state
ARM GAS  /tmp/ccxrmLlz.s 			page 5


 229 001e FFF7FEFF 		bl	__stack_chk_fail
 230              	.LVL28:
 231              	.L23:
 232 0022 00BF     		.align	2
 233              	.L22:
 234 0024 00000000 		.word	__stack_chk_guard
 235 0028 00000000 		.word	.LC0
 236              		.cfi_endproc
 237              	.LFE260:
 238              		.size	__stack_chk_fail, .-__stack_chk_fail
 239              		.global	__stack_chk_guard
 240              		.global	bus_condvar
 241              		.global	bus_lock
 242              		.global	bus
 243              		.section	.bss.bus,"aw",%nobits
 244              		.align	2
 245              		.set	.LANCHOR2,. + 0
 246              		.type	bus, %object
 247              		.size	bus, 12
 248              	bus:
 249 0000 00000000 		.space	12
 249      00000000 
 249      00000000 
 250              		.section	.data.__stack_chk_guard,"aw",%progbits
 251              		.align	2
 252              		.type	__stack_chk_guard, %object
 253              		.size	__stack_chk_guard, 4
 254              	__stack_chk_guard:
 255 0000 96E3DEE2 		.word	-488709226
 256              		.section	.data.bus_condvar,"aw",%progbits
 257              		.align	2
 258              		.set	.LANCHOR0,. + 0
 259              		.type	bus_condvar, %object
 260              		.size	bus_condvar, 8
 261              	bus_condvar:
 262 0000 00000000 		.word	bus_condvar
 263 0004 00000000 		.word	bus_condvar
 264              		.section	.data.bus_lock,"aw",%progbits
 265              		.align	2
 266              		.set	.LANCHOR1,. + 0
 267              		.type	bus_lock, %object
 268              		.size	bus_lock, 20
 269              	bus_lock:
 270 0000 00000000 		.word	bus_lock
 271 0004 00000000 		.word	bus_lock
 272 0008 00000000 		.word	0
 273 000c 00000000 		.word	0
 274 0010 00000000 		.word	0
 275              		.section	.rodata.__stack_chk_fail.str1.4,"aMS",%progbits,1
 276              		.align	2
 277              	.LC0:
 278 0000 53746163 		.ascii	"Stack smashing detected\000"
 278      6B20736D 
 278      61736869 
 278      6E672064 
 278      65746563 
 279              		.text
ARM GAS  /tmp/ccxrmLlz.s 			page 6


 280              	.Letext0:
 281              		.file 2 "/home/acse-lab/Documents/TeamK/Eclipse_e-puck2/Tools/gcc-arm-none-eabi-7-2017-q4-major/ar
 282              		.file 3 "/home/acse-lab/Documents/TeamK/Eclipse_e-puck2/Tools/gcc-arm-none-eabi-7-2017-q4-major/li
 283              		.file 4 "/home/acse-lab/Documents/TeamK/Eclipse_e-puck2/Tools/gcc-arm-none-eabi-7-2017-q4-major/ar
 284              		.file 5 "/home/acse-lab/Documents/TeamK/Eclipse_e-puck2/Tools/gcc-arm-none-eabi-7-2017-q4-major/ar
 285              		.file 6 "/home/acse-lab/Documents/TeamK/Eclipse_e-puck2/Tools/gcc-arm-none-eabi-7-2017-q4-major/ar
 286              		.file 7 "/home/acse-lab/Documents/TeamK/Eclipse_e-puck2/Tools/gcc-arm-none-eabi-7-2017-q4-major/ar
 287              		.file 8 "/home/acse-lab/Documents/TeamK/Eclipse_e-puck2/Tools/gcc-arm-none-eabi-7-2017-q4-major/ar
 288              		.file 9 "/home/acse-lab/Documents/TeamK/Eclipse_e-puck2/Tools/gcc-arm-none-eabi-7-2017-q4-major/ar
 289              		.file 10 "../e-puck2_main-processor/ChibiOS//os/rt/ports/ARMCMx/compilers/GCC/chtypes.h"
 290              		.file 11 "../e-puck2_main-processor/ChibiOS//os/rt/include/chsystypes.h"
 291              		.file 12 "../e-puck2_main-processor/ChibiOS//os/rt/include/chschd.h"
 292              		.file 13 "../e-puck2_main-processor/ChibiOS//os/ext/CMSIS/include/core_cm4.h"
 293              		.file 14 "../e-puck2_main-processor/ChibiOS//os/ext/CMSIS/ST/system_stm32f4xx.h"
 294              		.file 15 "../e-puck2_main-processor/ChibiOS//os/ext/CMSIS/ST/stm32f407xx.h"
 295              		.file 16 "../e-puck2_main-processor/ChibiOS//os/rt/ports/ARMCMx/chcore.h"
 296              		.file 17 "../e-puck2_main-processor/ChibiOS//os/rt/ports/ARMCMx/chcore_v7m.h"
 297              		.file 18 "../e-puck2_main-processor/ChibiOS//os/rt/include/chdebug.h"
 298              		.file 19 "../e-puck2_main-processor/ChibiOS//os/rt/include/chtm.h"
 299              		.file 20 "../e-puck2_main-processor/ChibiOS//os/rt/include/chstats.h"
 300              		.file 21 "../e-puck2_main-processor/ChibiOS//os/rt/include/chsem.h"
 301              		.file 22 "../e-puck2_main-processor/ChibiOS//os/rt/include/chmtx.h"
 302              		.file 23 "../e-puck2_main-processor/ChibiOS//os/rt/include/chregistry.h"
 303              		.file 24 "../e-puck2_main-processor/ChibiOS//os/rt/include/chcond.h"
 304              		.file 25 "../e-puck2_main-processor/ChibiOS//os/rt/include/chevents.h"
 305              		.file 26 "../e-puck2_main-processor/ChibiOS//os/rt/include/chqueues.h"
 306              		.file 27 "../e-puck2_main-processor/ChibiOS//os/hal/ports/STM32/STM32F4xx/stm32_dma.h"
 307              		.file 28 "../e-puck2_main-processor/ChibiOS//os/hal/include/hal_ioblock.h"
 308              		.file 29 "../e-puck2_main-processor/ChibiOS//os/hal/ports/STM32/LLD/GPIOv2/pal_lld.h"
 309              		.file 30 "../e-puck2_main-processor/ChibiOS//os/hal/include/adc.h"
 310              		.file 31 "../e-puck2_main-processor/ChibiOS//os/hal/ports/STM32/STM32F4xx/adc_lld.h"
 311              		.file 32 "../e-puck2_main-processor/ChibiOS//os/hal/include/can.h"
 312              		.file 33 "../e-puck2_main-processor/ChibiOS//os/hal/ports/STM32/LLD/can_lld.h"
 313              		.file 34 "../e-puck2_main-processor/ChibiOS//os/hal/include/dac.h"
 314              		.file 35 "../e-puck2_main-processor/ChibiOS//os/hal/ports/STM32/LLD/DACv1/dac_lld.h"
 315              		.file 36 "../e-puck2_main-processor/ChibiOS//os/hal/include/ext.h"
 316              		.file 37 "../e-puck2_main-processor/ChibiOS//os/hal/ports/STM32/LLD/ext_lld.h"
 317              		.file 38 "../e-puck2_main-processor/ChibiOS//os/hal/include/gpt.h"
 318              		.file 39 "../e-puck2_main-processor/ChibiOS//os/hal/ports/STM32/LLD/TIMv1/gpt_lld.h"
 319              		.file 40 "../e-puck2_main-processor/ChibiOS//os/hal/ports/STM32/LLD/TIMv1/stm32_tim.h"
 320              		.file 41 "../e-puck2_main-processor/ChibiOS//os/hal/include/i2c.h"
 321              		.file 42 "../e-puck2_main-processor/ChibiOS//os/hal/ports/STM32/LLD/I2Cv1/i2c_lld.h"
 322              		.file 43 "../e-puck2_main-processor/ChibiOS//os/hal/include/i2s.h"
 323              		.file 44 "../e-puck2_main-processor/ChibiOS//os/hal/ports/STM32/LLD/SPIv1/i2s_lld.h"
 324              		.file 45 "../e-puck2_main-processor/ChibiOS//os/hal/include/pwm.h"
 325              		.file 46 "../e-puck2_main-processor/ChibiOS//os/hal/ports/STM32/LLD/TIMv1/pwm_lld.h"
 326              		.file 47 "../e-puck2_main-processor/ChibiOS//os/hal/include/serial.h"
 327              		.file 48 "../e-puck2_main-processor/ChibiOS//os/hal/ports/STM32/LLD/USARTv1/serial_lld.h"
 328              		.file 49 "../e-puck2_main-processor/ChibiOS//os/hal/include/sdc.h"
 329              		.file 50 "../e-puck2_main-processor/ChibiOS//os/hal/ports/STM32/LLD/sdc_lld.h"
 330              		.file 51 "../e-puck2_main-processor/ChibiOS//os/hal/include/spi.h"
 331              		.file 52 "../e-puck2_main-processor/ChibiOS//os/hal/ports/STM32/LLD/SPIv1/spi_lld.h"
 332              		.file 53 "../e-puck2_main-processor/ChibiOS//os/hal/include/usb.h"
 333              		.file 54 "../e-puck2_main-processor/ChibiOS//os/hal/ports/STM32/LLD/OTGv1/usb_lld.h"
 334              		.file 55 "../e-puck2_main-processor/ChibiOS//os/hal/ports/STM32/LLD/OTGv1/stm32_otg.h"
 335              		.file 56 "/home/acse-lab/Documents/TeamK/Eclipse_e-puck2/Tools/gcc-arm-none-eabi-7-2017-q4-major/a
 336              		.file 57 "../e-puck2_main-processor/src/msgbus/messagebus.h"
ARM GAS  /tmp/ccxrmLlz.s 			page 7


 337              		.file 58 "../e-puck2_main-processor/src/parameter/parameter.h"
 338              		.file 59 "./main.h"
 339              		.file 60 "../e-puck2_main-processor/src/motors.h"
 340              		.file 61 "../e-puck2_main-processor/ChibiOS//os/rt/include/chsys.h"
 341              		.file 62 "../e-puck2_main-processor/ChibiOS//os/hal/include/hal.h"
 342              		.file 63 "../e-puck2_main-processor/src/memory_protection.h"
 343              		.file 64 "../e-puck2_main-processor/src/sensors/proximity.h"
 344              		.file 65 "../e-puck2_main-processor/src/leds.h"
 345              		.file 66 "../e-puck2_main-processor/src/spi_comm.h"